target datalayout = "e-m:e-p270:32:32-p271:32:32-p272:64:64-i64:64-i128:128-f80:128-n8:16:32:64-S128"
target triple = "x86_64-pc-linux-gnu"

%struct.acttab = type { i32, i32, ptr, ptr, i32, i32, i32, i32, i32, i32, i32 }
%struct.lookahead_action = type { i32, i32 }

@stderr = external global ptr, align 8
@.str.1 = private unnamed_addr constant [15 x i8] c"malloc failed\0A\00", align 1

; Function Attrs: null_pointer_is_valid sspstrong uwtable
define hidden void @acttab_action(ptr noundef %0, i32 noundef %1, i32 noundef %2) #0 {
  %4 = alloca ptr, align 8
  %5 = alloca i32, align 4
  %6 = alloca i32, align 4
  store ptr %0, ptr %4, align 8
  store i32 %1, ptr %5, align 4
  store i32 %2, ptr %6, align 4
  %7 = load ptr, ptr %4, align 8
  %8 = getelementptr inbounds nuw %struct.acttab, ptr %7, i32 0, i32 7
  %9 = load i32, ptr %8, align 4
  %10 = load ptr, ptr %4, align 8
  %11 = getelementptr inbounds nuw %struct.acttab, ptr %10, i32 0, i32 8
  %12 = load i32, ptr %11, align 8
  %13 = icmp sge i32 %9, %12
  br i1 %13, label %14, label %38

14:                                               ; preds = %3
  %15 = load ptr, ptr %4, align 8
  %16 = getelementptr inbounds nuw %struct.acttab, ptr %15, i32 0, i32 8
  %17 = load i32, ptr %16, align 8
  %18 = add i32 %17, 25
  store i32 %18, ptr %16, align 8
  %19 = load ptr, ptr %4, align 8
  %20 = getelementptr inbounds nuw %struct.acttab, ptr %19, i32 0, i32 3
  %21 = load ptr, ptr %20, align 8
  %22 = load ptr, ptr %4, align 8
  %23 = getelementptr inbounds nuw %struct.acttab, ptr %22, i32 0, i32 8
  %24 = load i32, ptr %23, align 8
  %25 = sext i32 %24 to i64
  %26 = mul i64 8, %25
  %27 = call ptr @realloc(ptr noundef %21, i64 noundef %26) #21
  %28 = load ptr, ptr %4, align 8
  %29 = getelementptr inbounds nuw %struct.acttab, ptr %28, i32 0, i32 3
  store ptr %27, ptr %29, align 8
  %30 = load ptr, ptr %4, align 8
  %31 = getelementptr inbounds nuw %struct.acttab, ptr %30, i32 0, i32 3
  %32 = load ptr, ptr %31, align 8
  %33 = icmp eq ptr %32, null
  br i1 %33, label %34, label %37

34:                                               ; preds = %14
  %35 = load ptr, ptr @stderr, align 8
  %36 = call i32 (ptr, i32, ptr, ...) @__fprintf_chk(ptr noundef %35, i32 noundef 2, ptr noundef @.str.1)
  call void @exit(i32 noundef 1) #20
  unreachable

37:                                               ; preds = %14
  br label %38

38:                                               ; preds = %37, %3
  %39 = load ptr, ptr %4, align 8
  %40 = getelementptr inbounds nuw %struct.acttab, ptr %39, i32 0, i32 7
  %41 = load i32, ptr %40, align 4
  %42 = icmp eq i32 %41, 0
  br i1 %42, label %43, label %53

43:                                               ; preds = %38
  %44 = load i32, ptr %5, align 4
  %45 = load ptr, ptr %4, align 8
  %46 = getelementptr inbounds nuw %struct.acttab, ptr %45, i32 0, i32 6
  store i32 %44, ptr %46, align 8
  %47 = load i32, ptr %5, align 4
  %48 = load ptr, ptr %4, align 8
  %49 = getelementptr inbounds nuw %struct.acttab, ptr %48, i32 0, i32 4
  store i32 %47, ptr %49, align 8
  %50 = load i32, ptr %6, align 4
  %51 = load ptr, ptr %4, align 8
  %52 = getelementptr inbounds nuw %struct.acttab, ptr %51, i32 0, i32 5
  store i32 %50, ptr %52, align 4
  br label %77

53:                                               ; preds = %38
  %54 = load ptr, ptr %4, align 8
  %55 = getelementptr inbounds nuw %struct.acttab, ptr %54, i32 0, i32 6
  %56 = load i32, ptr %55, align 8
  %57 = load i32, ptr %5, align 4
  %58 = icmp slt i32 %56, %57
  br i1 %58, label %59, label %63

59:                                               ; preds = %53
  %60 = load i32, ptr %5, align 4
  %61 = load ptr, ptr %4, align 8
  %62 = getelementptr inbounds nuw %struct.acttab, ptr %61, i32 0, i32 6
  store i32 %60, ptr %62, align 8
  br label %63

63:                                               ; preds = %59, %53
  %64 = load ptr, ptr %4, align 8
  %65 = getelementptr inbounds nuw %struct.acttab, ptr %64, i32 0, i32 4
  %66 = load i32, ptr %65, align 8
  %67 = load i32, ptr %5, align 4
  %68 = icmp sgt i32 %66, %67
  br i1 %68, label %69, label %76

69:                                               ; preds = %63
  %70 = load i32, ptr %5, align 4
  %71 = load ptr, ptr %4, align 8
  %72 = getelementptr inbounds nuw %struct.acttab, ptr %71, i32 0, i32 4
  store i32 %70, ptr %72, align 8
  %73 = load i32, ptr %6, align 4
  %74 = load ptr, ptr %4, align 8
  %75 = getelementptr inbounds nuw %struct.acttab, ptr %74, i32 0, i32 5
  store i32 %73, ptr %75, align 4
  br label %76

76:                                               ; preds = %69, %63
  br label %77

77:                                               ; preds = %76, %43
  %78 = load i32, ptr %5, align 4
  %79 = load ptr, ptr %4, align 8
  %80 = getelementptr inbounds nuw %struct.acttab, ptr %79, i32 0, i32 3
  %81 = load ptr, ptr %80, align 8
  %82 = load ptr, ptr %4, align 8
  %83 = getelementptr inbounds nuw %struct.acttab, ptr %82, i32 0, i32 7
  %84 = load i32, ptr %83, align 4
  %85 = sext i32 %84 to i64
  %86 = getelementptr %struct.lookahead_action, ptr %81, i64 %85
  %87 = getelementptr inbounds nuw %struct.lookahead_action, ptr %86, i32 0, i32 0
  store i32 %78, ptr %87, align 4
  %88 = load i32, ptr %6, align 4
  %89 = load ptr, ptr %4, align 8
  %90 = getelementptr inbounds nuw %struct.acttab, ptr %89, i32 0, i32 3
  %91 = load ptr, ptr %90, align 8
  %92 = load ptr, ptr %4, align 8
  %93 = getelementptr inbounds nuw %struct.acttab, ptr %92, i32 0, i32 7
  %94 = load i32, ptr %93, align 4
  %95 = sext i32 %94 to i64
  %96 = getelementptr %struct.lookahead_action, ptr %91, i64 %95
  %97 = getelementptr inbounds nuw %struct.lookahead_action, ptr %96, i32 0, i32 1
  store i32 %88, ptr %97, align 4
  %98 = load ptr, ptr %4, align 8
  %99 = getelementptr inbounds nuw %struct.acttab, ptr %98, i32 0, i32 7
  %100 = load i32, ptr %99, align 4
  %101 = add i32 %100, 1
  store i32 %101, ptr %99, align 4
  ret void
}