; Function Attrs: null_pointer_is_valid sspstrong uwtable
define hidden void @acttab_action(ptr noundef captures(none) %0, i32 noundef %1, i32 noundef %2) local_unnamed_addr #0 {
  %4 = getelementptr inbounds nuw i8, ptr %0, i64 36
  %5 = load i32, ptr %4, align 4
  %6 = getelementptr inbounds nuw i8, ptr %0, i64 40
  %7 = load i32, ptr %6, align 8
  %.not = icmp slt i32 %5, %7
  br i1 %.not, label %19, label %8

8:                                                ; preds = %3
  %9 = add i32 %7, 25
  store i32 %9, ptr %6, align 8
  %10 = getelementptr inbounds nuw i8, ptr %0, i64 16
  %11 = load ptr, ptr %10, align 8
  %12 = sext i32 %9 to i64
  %13 = shl nsw i64 %12, 3
  %14 = tail call ptr @realloc(ptr noundef %11, i64 noundef %13) #43
  store ptr %14, ptr %10, align 8
  %15 = icmp eq ptr %14, null
  br i1 %15, label %16, label %thread-pre-split

16:                                               ; preds = %8
  %17 = load ptr, ptr @stderr, align 8
  %18 = tail call i32 (ptr, i32, ptr, ...) @__fprintf_chk(ptr noundef %17, i32 noundef 2, ptr noundef nonnull @.str.1)
  tail call void @exit(i32 noundef 1) #41
  unreachable

thread-pre-split:                                 ; preds = %8
  %.pr = load i32, ptr %4, align 4
  br label %19

19:                                               ; preds = %thread-pre-split, %3
  %20 = phi i32 [ %.pr, %thread-pre-split ], [ %5, %3 ]
  %21 = icmp eq i32 %20, 0
  %22 = getelementptr inbounds nuw i8, ptr %0, i64 32
  br i1 %21, label %23, label %25

23:                                               ; preds = %19
  store i32 %1, ptr %22, align 8
  %24 = getelementptr inbounds nuw i8, ptr %0, i64 24
  store i32 %1, ptr %24, align 8
  br label %.sink.split

25:                                               ; preds = %19
  %26 = load i32, ptr %22, align 8
  %27 = icmp slt i32 %26, %1
  br i1 %27, label %28, label %29

28:                                               ; preds = %25
  store i32 %1, ptr %22, align 8
  br label %29

29:                                               ; preds = %28, %25
  %30 = getelementptr inbounds nuw i8, ptr %0, i64 24
  %31 = load i32, ptr %30, align 8
  %32 = icmp sgt i32 %31, %1
  br i1 %32, label %33, label %35

33:                                               ; preds = %29
  store i32 %1, ptr %30, align 8
  br label %.sink.split

.sink.split:                                      ; preds = %23, %33
  %34 = getelementptr inbounds nuw i8, ptr %0, i64 28
  store i32 %2, ptr %34, align 4
  br label %35

35:                                               ; preds = %.sink.split, %29
  %36 = getelementptr inbounds nuw i8, ptr %0, i64 16
  %37 = load ptr, ptr %36, align 8
  %38 = sext i32 %20 to i64
  %39 = getelementptr %struct.lookahead_action, ptr %37, i64 %38
  store i32 %1, ptr %39, align 4
  %40 = load ptr, ptr %36, align 8
  %41 = load i32, ptr %4, align 4
  %42 = sext i32 %41 to i64
  %43 = getelementptr %struct.lookahead_action, ptr %40, i64 %42, i32 1
  store i32 %2, ptr %43, align 4
  %44 = load i32, ptr %4, align 4
  %45 = add i32 %44, 1
  store i32 %45, ptr %4, align 4
  ret void
}